target datalayout = "e-m:e-p270:32:32-p271:32:32-p272:64:64-i64:64-i128:128-f80:128-n8:16:32:64-S128"
target triple = "x86_64-pc-linux-gnu"

%struct.SUNErrHandler_ = type { ptr, ptr, ptr }

; Function Attrs: nounwind uwtable
define i32 @SUNErrHandler_Create(ptr noundef %0, ptr noundef %1, ptr noundef %2) #0 {
  %4 = alloca i32, align 4
  %5 = alloca ptr, align 8
  %6 = alloca ptr, align 8
  %7 = alloca ptr, align 8
  %8 = alloca ptr, align 8
  %9 = alloca i32, align 4
  store ptr %0, ptr %5, align 8, !tbaa !3
  store ptr %1, ptr %6, align 8, !tbaa !3
  store ptr %2, ptr %7, align 8, !tbaa !7
  call void @llvm.lifetime.start.p0(i64 8, ptr %8) #9
  store ptr null, ptr %8, align 8, !tbaa !9
  %10 = call noalias ptr @malloc(i64 noundef 24) #10
  store ptr %10, ptr %8, align 8, !tbaa !9
  %11 = load ptr, ptr %8, align 8, !tbaa !9
  %12 = icmp ne ptr %11, null
  br i1 %12, label %14, label %13

13:                                               ; preds = %3
  store i32 -9988, ptr %4, align 4
  store i32 1, ptr %9, align 4
  br label %25

14:                                               ; preds = %3
  %15 = load ptr, ptr %8, align 8, !tbaa !9
  %16 = getelementptr inbounds nuw %struct.SUNErrHandler_, ptr %15, i32 0, i32 0
  store ptr null, ptr %16, align 8, !tbaa !11
  %17 = load ptr, ptr %5, align 8, !tbaa !3
  %18 = load ptr, ptr %8, align 8, !tbaa !9
  %19 = getelementptr inbounds nuw %struct.SUNErrHandler_, ptr %18, i32 0, i32 1
  store ptr %17, ptr %19, align 8, !tbaa !13
  %20 = load ptr, ptr %6, align 8, !tbaa !3
  %21 = load ptr, ptr %8, align 8, !tbaa !9
  %22 = getelementptr inbounds nuw %struct.SUNErrHandler_, ptr %21, i32 0, i32 2
  store ptr %20, ptr %22, align 8, !tbaa !14
  %23 = load ptr, ptr %8, align 8, !tbaa !9
  %24 = load ptr, ptr %7, align 8, !tbaa !7
  store ptr %23, ptr %24, align 8, !tbaa !9
  store i32 0, ptr %4, align 4
  store i32 1, ptr %9, align 4
  br label %25

25:                                               ; preds = %14, %13
  call void @llvm.lifetime.end.p0(i64 8, ptr %8) #9
  %26 = load i32, ptr %4, align 4
  ret i32 %26
}