; Function Attrs: mustprogress nofree nounwind willreturn memory(write, inaccessiblemem: readwrite) uwtable
define range(i32 -9988, 1) i32 @SUNErrHandler_Create(ptr noundef %0, ptr noundef %1, ptr noundef writeonly captures(none) %2) local_unnamed_addr #0 {
  %4 = tail call noalias dereferenceable_or_null(24) ptr @malloc(i64 noundef 24) #16
  %.not = icmp eq ptr %4, null
  br i1 %.not, label %8, label %5

5:                                                ; preds = %3
  store ptr null, ptr %4, align 8, !tbaa !3
  %6 = getelementptr inbounds nuw i8, ptr %4, i64 8
  store ptr %0, ptr %6, align 8, !tbaa !9
  %7 = getelementptr inbounds nuw i8, ptr %4, i64 16
  store ptr %1, ptr %7, align 8, !tbaa !10
  store ptr %4, ptr %2, align 8, !tbaa !11
  br label %8

8:                                                ; preds = %3, %5
  %.0 = phi i32 [ 0, %5 ], [ -9988, %3 ]
  ret i32 %.0
}